target datalayout = "e-m:e-p270:32:32-p271:32:32-p272:64:64-i64:64-i128:128-f80:128-n8:16:32:64-S128"
target triple = "x86_64-pc-linux-gnu"

%struct.lexbor_shs_hash_t = type { i32, i32, i32 }
%struct.lxb_encoding_encode_t = type { ptr, ptr, i64, i64, ptr, i64, i32 }

@lxb_encoding_multi_hash_jis0208 = external constant [11349 x %struct.lexbor_shs_hash_t], align 16

; Function Attrs: nounwind uwtable
define internal ptr @lxb_encoding_encode_shift_jis_index(i32 noundef %0) #0 {
  %2 = alloca ptr, align 8
  %3 = alloca i32, align 4
  %4 = alloca ptr, align 8
  store i32 %0, ptr %3, align 4
  %5 = load i32, ptr %3, align 4
  %6 = urem i32 %5, 9253
  %7 = add i32 %6, 1
  %8 = zext i32 %7 to i64
  %9 = getelementptr inbounds [11349 x %struct.lexbor_shs_hash_t], ptr @lxb_encoding_multi_hash_jis0208, i64 0, i64 %8
  store ptr %9, ptr %4, align 8
  br label %10

10:                                               ; preds = %33, %1
  %11 = load ptr, ptr %4, align 8
  %12 = getelementptr inbounds %struct.lexbor_shs_hash_t, ptr %11, i32 0, i32 0
  %13 = load i32, ptr %12, align 4
  %14 = load i32, ptr %3, align 4
  %15 = icmp eq i32 %13, %14
  br i1 %15, label %16, label %27

16:                                               ; preds = %10
  %17 = load ptr, ptr %4, align 8
  %18 = getelementptr inbounds %struct.lexbor_shs_hash_t, ptr %17, i32 0, i32 1
  %19 = load i32, ptr %18, align 4
  %20 = zext i32 %19 to i64
  %21 = trunc i64 %20 to i32
  %22 = sub i32 %21, 8272
  %23 = icmp ugt i32 %22, 563
  br i1 %23, label %24, label %26

24:                                               ; preds = %16
  %25 = load ptr, ptr %4, align 8
  store ptr %25, ptr %2, align 8
  br label %37

26:                                               ; preds = %16
  br label %27

27:                                               ; preds = %26, %10
  %28 = load ptr, ptr %4, align 8
  %29 = getelementptr inbounds %struct.lexbor_shs_hash_t, ptr %28, i32 0, i32 2
  %30 = load i32, ptr %29, align 4
  %31 = zext i32 %30 to i64
  %32 = getelementptr inbounds [11349 x %struct.lexbor_shs_hash_t], ptr @lxb_encoding_multi_hash_jis0208, i64 0, i64 %31
  store ptr %32, ptr %4, align 8
  br label %33

33:                                               ; preds = %27
  %34 = load ptr, ptr %4, align 8
  %35 = icmp ne ptr %34, @lxb_encoding_multi_hash_jis0208
  br i1 %35, label %10, label %36

36:                                               ; preds = %33
  store ptr null, ptr %2, align 8
  br label %37

37:                                               ; preds = %36, %24
  %38 = load ptr, ptr %2, align 8
  ret ptr %38
}

; Function Attrs: nounwind uwtable
define hidden i32 @lxb_encoding_encode_shift_jis(ptr noundef %0, ptr noundef %1, ptr noundef %2) #0 {
  %4 = alloca i32, align 4
  %5 = alloca ptr, align 8
  %6 = alloca ptr, align 8
  %7 = alloca ptr, align 8
  %8 = alloca i32, align 4
  %9 = alloca i32, align 4
  %10 = alloca i32, align 4
  %11 = alloca ptr, align 8
  store ptr %0, ptr %5, align 8
  store ptr %1, ptr %6, align 8
  store ptr %2, ptr %7, align 8
  br label %12

12:                                               ; preds = %216, %3
  %13 = load ptr, ptr %6, align 8
  %14 = load ptr, ptr %13, align 8
  %15 = load ptr, ptr %7, align 8
  %16 = icmp ult ptr %14, %15
  br i1 %16, label %17, label %220

17:                                               ; preds = %12
  %18 = load ptr, ptr %6, align 8
  %19 = load ptr, ptr %18, align 8
  %20 = load i32, ptr %19, align 4
  store i32 %20, ptr %10, align 4
  %21 = load i32, ptr %10, align 4
  %22 = icmp ule i32 %21, 128
  br i1 %22, label %23, label %45

23:                                               ; preds = %17
  br label %24

24:                                               ; preds = %23
  %25 = load ptr, ptr %5, align 8
  %26 = getelementptr inbounds %struct.lxb_encoding_encode_t, ptr %25, i32 0, i32 3
  %27 = load i64, ptr %26, align 8
  %28 = load ptr, ptr %5, align 8
  %29 = getelementptr inbounds %struct.lxb_encoding_encode_t, ptr %28, i32 0, i32 2
  %30 = load i64, ptr %29, align 8
  %31 = icmp eq i64 %27, %30
  br i1 %31, label %32, label %33

32:                                               ; preds = %24
  store i32 15, ptr %4, align 4
  br label %221

33:                                               ; preds = %24
  %34 = load i32, ptr %10, align 4
  %35 = trunc i32 %34 to i8
  %36 = load ptr, ptr %5, align 8
  %37 = getelementptr inbounds %struct.lxb_encoding_encode_t, ptr %36, i32 0, i32 1
  %38 = load ptr, ptr %37, align 8
  %39 = load ptr, ptr %5, align 8
  %40 = getelementptr inbounds %struct.lxb_encoding_encode_t, ptr %39, i32 0, i32 3
  %41 = load i64, ptr %40, align 8
  %42 = add i64 %41, 1
  store i64 %42, ptr %40, align 8
  %43 = getelementptr inbounds i8, ptr %38, i64 %41
  store i8 %35, ptr %43, align 1
  br label %44

44:                                               ; preds = %33
  br label %216

45:                                               ; preds = %17
  %46 = load i32, ptr %10, align 4
  %47 = sub i32 %46, 65377
  %48 = icmp ule i32 %47, 62
  br i1 %48, label %49, label %75

49:                                               ; preds = %45
  br label %50

50:                                               ; preds = %49
  %51 = load ptr, ptr %5, align 8
  %52 = getelementptr inbounds %struct.lxb_encoding_encode_t, ptr %51, i32 0, i32 3
  %53 = load i64, ptr %52, align 8
  %54 = load ptr, ptr %5, align 8
  %55 = getelementptr inbounds %struct.lxb_encoding_encode_t, ptr %54, i32 0, i32 2
  %56 = load i64, ptr %55, align 8
  %57 = icmp eq i64 %53, %56
  br i1 %57, label %58, label %59

58:                                               ; preds = %50
  store i32 15, ptr %4, align 4
  br label %221

59:                                               ; preds = %50
  %60 = load i32, ptr %10, align 4
  %61 = trunc i32 %60 to i8
  %62 = zext i8 %61 to i32
  %63 = sub nsw i32 %62, 65377
  %64 = add nsw i32 %63, 161
  %65 = trunc i32 %64 to i8
  %66 = load ptr, ptr %5, align 8
  %67 = getelementptr inbounds %struct.lxb_encoding_encode_t, ptr %66, i32 0, i32 1
  %68 = load ptr, ptr %67, align 8
  %69 = load ptr, ptr %5, align 8
  %70 = getelementptr inbounds %struct.lxb_encoding_encode_t, ptr %69, i32 0, i32 3
  %71 = load i64, ptr %70, align 8
  %72 = add i64 %71, 1
  store i64 %72, ptr %70, align 8
  %73 = getelementptr inbounds i8, ptr %68, i64 %71
  store i8 %65, ptr %73, align 1
  br label %74

74:                                               ; preds = %59
  br label %216

75:                                               ; preds = %45
  %76 = load i32, ptr %10, align 4
  switch i32 %76, label %118 [
    i32 165, label %77
    i32 8254, label %97
    i32 8722, label %117
  ]

77:                                               ; preds = %75
  br label %78

78:                                               ; preds = %77
  %79 = load ptr, ptr %5, align 8
  %80 = getelementptr inbounds %struct.lxb_encoding_encode_t, ptr %79, i32 0, i32 3
  %81 = load i64, ptr %80, align 8
  %82 = load ptr, ptr %5, align 8
  %83 = getelementptr inbounds %struct.lxb_encoding_encode_t, ptr %82, i32 0, i32 2
  %84 = load i64, ptr %83, align 8
  %85 = icmp eq i64 %81, %84
  br i1 %85, label %86, label %87

86:                                               ; preds = %78
  store i32 15, ptr %4, align 4
  br label %221

87:                                               ; preds = %78
  %88 = load ptr, ptr %5, align 8
  %89 = getelementptr inbounds %struct.lxb_encoding_encode_t, ptr %88, i32 0, i32 1
  %90 = load ptr, ptr %89, align 8
  %91 = load ptr, ptr %5, align 8
  %92 = getelementptr inbounds %struct.lxb_encoding_encode_t, ptr %91, i32 0, i32 3
  %93 = load i64, ptr %92, align 8
  %94 = add i64 %93, 1
  store i64 %94, ptr %92, align 8
  %95 = getelementptr inbounds i8, ptr %90, i64 %93
  store i8 92, ptr %95, align 1
  br label %96

96:                                               ; preds = %87
  br label %216

97:                                               ; preds = %75
  br label %98

98:                                               ; preds = %97
  %99 = load ptr, ptr %5, align 8
  %100 = getelementptr inbounds %struct.lxb_encoding_encode_t, ptr %99, i32 0, i32 3
  %101 = load i64, ptr %100, align 8
  %102 = load ptr, ptr %5, align 8
  %103 = getelementptr inbounds %struct.lxb_encoding_encode_t, ptr %102, i32 0, i32 2
  %104 = load i64, ptr %103, align 8
  %105 = icmp eq i64 %101, %104
  br i1 %105, label %106, label %107

106:                                              ; preds = %98
  store i32 15, ptr %4, align 4
  br label %221

107:                                              ; preds = %98
  %108 = load ptr, ptr %5, align 8
  %109 = getelementptr inbounds %struct.lxb_encoding_encode_t, ptr %108, i32 0, i32 1
  %110 = load ptr, ptr %109, align 8
  %111 = load ptr, ptr %5, align 8
  %112 = getelementptr inbounds %struct.lxb_encoding_encode_t, ptr %111, i32 0, i32 3
  %113 = load i64, ptr %112, align 8
  %114 = add i64 %113, 1
  store i64 %114, ptr %112, align 8
  %115 = getelementptr inbounds i8, ptr %110, i64 %113
  store i8 126, ptr %115, align 1
  br label %116

116:                                              ; preds = %107
  br label %216

117:                                              ; preds = %75
  store i32 65293, ptr %10, align 4
  br label %118

118:                                              ; preds = %117, %75
  %119 = load i32, ptr %10, align 4
  %120 = call ptr @lxb_encoding_encode_shift_jis_index(i32 noundef %119)
  store ptr %120, ptr %11, align 8
  %121 = load ptr, ptr %11, align 8
  %122 = icmp eq ptr %121, null
  br i1 %122, label %123, label %165

123:                                              ; preds = %118
  br label %124

124:                                              ; preds = %123
  %125 = load ptr, ptr %5, align 8
  %126 = getelementptr inbounds %struct.lxb_encoding_encode_t, ptr %125, i32 0, i32 4
  %127 = load ptr, ptr %126, align 8
  %128 = icmp eq ptr %127, null
  br i1 %128, label %129, label %130

129:                                              ; preds = %124
  store i32 1, ptr %4, align 4
  br label %221

130:                                              ; preds = %124
  %131 = load ptr, ptr %5, align 8
  %132 = getelementptr inbounds %struct.lxb_encoding_encode_t, ptr %131, i32 0, i32 3
  %133 = load i64, ptr %132, align 8
  %134 = load ptr, ptr %5, align 8
  %135 = getelementptr inbounds %struct.lxb_encoding_encode_t, ptr %134, i32 0, i32 5
  %136 = load i64, ptr %135, align 8
  %137 = add i64 %133, %136
  %138 = load ptr, ptr %5, align 8
  %139 = getelementptr inbounds %struct.lxb_encoding_encode_t, ptr %138, i32 0, i32 2
  %140 = load i64, ptr %139, align 8
  %141 = icmp ugt i64 %137, %140
  br i1 %141, label %142, label %143

142:                                              ; preds = %130
  store i32 15, ptr %4, align 4
  br label %221

143:                                              ; preds = %130
  %144 = load ptr, ptr %5, align 8
  %145 = getelementptr inbounds %struct.lxb_encoding_encode_t, ptr %144, i32 0, i32 1
  %146 = load ptr, ptr %145, align 8
  %147 = load ptr, ptr %5, align 8
  %148 = getelementptr inbounds %struct.lxb_encoding_encode_t, ptr %147, i32 0, i32 3
  %149 = load i64, ptr %148, align 8
  %150 = getelementptr inbounds i8, ptr %146, i64 %149
  %151 = load ptr, ptr %5, align 8
  %152 = getelementptr inbounds %struct.lxb_encoding_encode_t, ptr %151, i32 0, i32 4
  %153 = load ptr, ptr %152, align 8
  %154 = load ptr, ptr %5, align 8
  %155 = getelementptr inbounds %struct.lxb_encoding_encode_t, ptr %154, i32 0, i32 5
  %156 = load i64, ptr %155, align 8
  call void @llvm.memcpy.p0.p0.i64(ptr align 1 %150, ptr align 1 %153, i64 %156, i1 false)
  %157 = load ptr, ptr %5, align 8
  %158 = getelementptr inbounds %struct.lxb_encoding_encode_t, ptr %157, i32 0, i32 5
  %159 = load i64, ptr %158, align 8
  %160 = load ptr, ptr %5, align 8
  %161 = getelementptr inbounds %struct.lxb_encoding_encode_t, ptr %160, i32 0, i32 3
  %162 = load i64, ptr %161, align 8
  %163 = add i64 %162, %159
  store i64 %163, ptr %161, align 8
  br label %164

164:                                              ; preds = %143
  br label %216

165:                                              ; preds = %118
  %166 = load ptr, ptr %5, align 8
  %167 = getelementptr inbounds %struct.lxb_encoding_encode_t, ptr %166, i32 0, i32 3
  %168 = load i64, ptr %167, align 8
  %169 = add i64 %168, 2
  %170 = load ptr, ptr %5, align 8
  %171 = getelementptr inbounds %struct.lxb_encoding_encode_t, ptr %170, i32 0, i32 2
  %172 = load i64, ptr %171, align 8
  %173 = icmp ugt i64 %169, %172
  br i1 %173, label %174, label %175

174:                                              ; preds = %165
  store i32 15, ptr %4, align 4
  br label %221

175:                                              ; preds = %165
  %176 = load ptr, ptr %11, align 8
  %177 = getelementptr inbounds %struct.lexbor_shs_hash_t, ptr %176, i32 0, i32 1
  %178 = load i32, ptr %177, align 4
  %179 = zext i32 %178 to i64
  %180 = trunc i64 %179 to i32
  %181 = udiv i32 %180, 188
  store i32 %181, ptr %8, align 4
  %182 = load ptr, ptr %11, align 8
  %183 = getelementptr inbounds %struct.lexbor_shs_hash_t, ptr %182, i32 0, i32 1
  %184 = load i32, ptr %183, align 4
  %185 = zext i32 %184 to i64
  %186 = trunc i64 %185 to i32
  %187 = urem i32 %186, 188
  store i32 %187, ptr %9, align 4
  %188 = load i32, ptr %8, align 4
  %189 = load i32, ptr %8, align 4
  %190 = icmp ult i32 %189, 31
  %191 = select i1 %190, i32 129, i32 193
  %192 = add i32 %188, %191
  %193 = trunc i32 %192 to i8
  %194 = load ptr, ptr %5, align 8
  %195 = getelementptr inbounds %struct.lxb_encoding_encode_t, ptr %194, i32 0, i32 1
  %196 = load ptr, ptr %195, align 8
  %197 = load ptr, ptr %5, align 8
  %198 = getelementptr inbounds %struct.lxb_encoding_encode_t, ptr %197, i32 0, i32 3
  %199 = load i64, ptr %198, align 8
  %200 = add i64 %199, 1
  store i64 %200, ptr %198, align 8
  %201 = getelementptr inbounds i8, ptr %196, i64 %199
  store i8 %193, ptr %201, align 1
  %202 = load i32, ptr %9, align 4
  %203 = load i32, ptr %9, align 4
  %204 = icmp ult i32 %203, 63
  %205 = select i1 %204, i32 64, i32 65
  %206 = add i32 %202, %205
  %207 = trunc i32 %206 to i8
  %208 = load ptr, ptr %5, align 8
  %209 = getelementptr inbounds %struct.lxb_encoding_encode_t, ptr %208, i32 0, i32 1
  %210 = load ptr, ptr %209, align 8
  %211 = load ptr, ptr %5, align 8
  %212 = getelementptr inbounds %struct.lxb_encoding_encode_t, ptr %211, i32 0, i32 3
  %213 = load i64, ptr %212, align 8
  %214 = add i64 %213, 1
  store i64 %214, ptr %212, align 8
  %215 = getelementptr inbounds i8, ptr %210, i64 %213
  store i8 %207, ptr %215, align 1
  br label %216

216:                                              ; preds = %175, %164, %116, %96, %74, %44
  %217 = load ptr, ptr %6, align 8
  %218 = load ptr, ptr %217, align 8
  %219 = getelementptr inbounds i32, ptr %218, i32 1
  store ptr %219, ptr %217, align 8
  br label %12

220:                                              ; preds = %12
  store i32 0, ptr %4, align 4
  br label %221

221:                                              ; preds = %220, %174, %142, %129, %106, %86, %58, %32
  %222 = load i32, ptr %4, align 4
  ret i32 %222
}