; Function Attrs: nofree norecurse nosync nounwind memory(readwrite, inaccessiblemem: none) uwtable
define hidden noundef i32 @lxb_encoding_encode_shift_jis(ptr nocapture noundef %0, ptr nocapture noundef %1, ptr noundef readnone %2) local_unnamed_addr #0 {
  %4 = getelementptr inbounds i8, ptr %0, i64 24
  %5 = getelementptr inbounds i8, ptr %0, i64 32
  %6 = load ptr, ptr %1, align 8
  %7 = icmp ult ptr %6, %2
  br i1 %7, label %.lr.ph, label %._crit_edge

.lr.ph:                                           ; preds = %3
  %8 = getelementptr inbounds i8, ptr %0, i64 16
  %9 = getelementptr inbounds i8, ptr %0, i64 8
  %10 = getelementptr inbounds i8, ptr %0, i64 40
  br label %11

11:                                               ; preds = %.lr.ph, %106
  %12 = phi ptr [ %6, %.lr.ph ], [ %108, %106 ]
  %13 = load i32, ptr %12, align 4
  %14 = icmp ult i32 %13, 129
  br i1 %14, label %15, label %24

15:                                               ; preds = %11
  %16 = load i64, ptr %4, align 8
  %17 = load i64, ptr %8, align 8
  %18 = icmp eq i64 %16, %17
  br i1 %18, label %._crit_edge, label %19

19:                                               ; preds = %15
  %20 = trunc i32 %13 to i8
  %21 = load ptr, ptr %9, align 8
  %22 = add i64 %16, 1
  store i64 %22, ptr %4, align 8
  %23 = getelementptr inbounds i8, ptr %21, i64 %16
  store i8 %20, ptr %23, align 1
  br label %106

24:                                               ; preds = %11
  %25 = add i32 %13, -65377
  %26 = icmp ult i32 %25, 63
  br i1 %26, label %27, label %37

27:                                               ; preds = %24
  %28 = load i64, ptr %4, align 8
  %29 = load i64, ptr %8, align 8
  %30 = icmp eq i64 %28, %29
  br i1 %30, label %._crit_edge, label %31

31:                                               ; preds = %27
  %32 = trunc i32 %13 to i8
  %33 = add nuw i8 %32, 64
  %34 = load ptr, ptr %9, align 8
  %35 = add i64 %28, 1
  store i64 %35, ptr %4, align 8
  %36 = getelementptr inbounds i8, ptr %34, i64 %28
  store i8 %33, ptr %36, align 1
  br label %106

37:                                               ; preds = %24
  switch i32 %13, label %55 [
    i32 165, label %38
    i32 8254, label %46
    i32 8722, label %54
  ]

38:                                               ; preds = %37
  %39 = load i64, ptr %4, align 8
  %40 = load i64, ptr %8, align 8
  %41 = icmp eq i64 %39, %40
  br i1 %41, label %._crit_edge, label %42

42:                                               ; preds = %38
  %43 = load ptr, ptr %9, align 8
  %44 = add i64 %39, 1
  store i64 %44, ptr %4, align 8
  %45 = getelementptr inbounds i8, ptr %43, i64 %39
  store i8 92, ptr %45, align 1
  br label %106

46:                                               ; preds = %37
  %47 = load i64, ptr %4, align 8
  %48 = load i64, ptr %8, align 8
  %49 = icmp eq i64 %47, %48
  br i1 %49, label %._crit_edge, label %50

50:                                               ; preds = %46
  %51 = load ptr, ptr %9, align 8
  %52 = add i64 %47, 1
  store i64 %52, ptr %4, align 8
  %53 = getelementptr inbounds i8, ptr %51, i64 %47
  store i8 126, ptr %53, align 1
  br label %106

54:                                               ; preds = %37
  br label %55

55:                                               ; preds = %54, %37
  %.049 = phi i32 [ %13, %37 ], [ 65293, %54 ]
  %56 = urem i32 %.049, 9253
  %57 = add nuw nsw i32 %56, 1
  br label %58

58:                                               ; preds = %66, %55
  %.pn.in.i = phi i32 [ %57, %55 ], [ %68, %66 ]
  %.pn.i = zext i32 %.pn.in.i to i64
  %.0.i = getelementptr inbounds [11349 x %struct.lexbor_shs_hash_t], ptr @lxb_encoding_multi_hash_jis0208, i64 0, i64 %.pn.i
  %59 = load i32, ptr %.0.i, align 4
  %60 = icmp eq i32 %59, %.049
  br i1 %60, label %61, label %66

61:                                               ; preds = %58
  %62 = getelementptr inbounds i8, ptr %.0.i, i64 4
  %63 = load i32, ptr %62, align 4
  %64 = add i32 %63, -8836
  %65 = icmp ult i32 %64, -564
  br i1 %65, label %lxb_encoding_encode_shift_jis_index.exit, label %66

66:                                               ; preds = %61, %58
  %67 = getelementptr inbounds i8, ptr %.0.i, i64 8
  %68 = load i32, ptr %67, align 4
  %.not.i = icmp eq i32 %68, 0
  br i1 %.not.i, label %69, label %58

69:                                               ; preds = %66
  %70 = load ptr, ptr %5, align 8
  %71 = icmp eq ptr %70, null
  br i1 %71, label %._crit_edge, label %72

72:                                               ; preds = %69
  %73 = load i64, ptr %4, align 8
  %74 = load i64, ptr %10, align 8
  %75 = add i64 %74, %73
  %76 = load i64, ptr %8, align 8
  %77 = icmp ugt i64 %75, %76
  br i1 %77, label %._crit_edge, label %78

78:                                               ; preds = %72
  %79 = load ptr, ptr %9, align 8
  %80 = getelementptr inbounds i8, ptr %79, i64 %73
  tail call void @llvm.memcpy.p0.p0.i64(ptr align 1 %80, ptr nonnull align 1 %70, i64 %74, i1 false)
  %81 = load i64, ptr %10, align 8
  %82 = load i64, ptr %4, align 8
  %83 = add i64 %82, %81
  store i64 %83, ptr %4, align 8
  br label %106

lxb_encoding_encode_shift_jis_index.exit:         ; preds = %61
  %84 = load i64, ptr %4, align 8
  %85 = add i64 %84, 2
  %86 = load i64, ptr %8, align 8
  %87 = icmp ugt i64 %85, %86
  br i1 %87, label %._crit_edge, label %88

88:                                               ; preds = %lxb_encoding_encode_shift_jis_index.exit
  %89 = udiv i32 %63, 188
  %90 = urem i32 %63, 188
  %91 = icmp ult i32 %63, 5828
  %92 = select i1 %91, i32 129, i32 193
  %93 = add nuw nsw i32 %92, %89
  %94 = trunc i32 %93 to i8
  %95 = load ptr, ptr %9, align 8
  %96 = add i64 %84, 1
  store i64 %96, ptr %4, align 8
  %97 = getelementptr inbounds i8, ptr %95, i64 %84
  store i8 %94, ptr %97, align 1
  %98 = icmp ult i32 %90, 63
  %99 = select i1 %98, i32 64, i32 65
  %100 = add nuw nsw i32 %99, %90
  %101 = trunc i32 %100 to i8
  %102 = load ptr, ptr %9, align 8
  %103 = load i64, ptr %4, align 8
  %104 = add i64 %103, 1
  store i64 %104, ptr %4, align 8
  %105 = getelementptr inbounds i8, ptr %102, i64 %103
  store i8 %101, ptr %105, align 1
  br label %106

106:                                              ; preds = %88, %78, %50, %42, %31, %19
  %107 = load ptr, ptr %1, align 8
  %108 = getelementptr inbounds i8, ptr %107, i64 4
  store ptr %108, ptr %1, align 8
  %109 = icmp ult ptr %108, %2
  br i1 %109, label %11, label %._crit_edge

._crit_edge:                                      ; preds = %15, %27, %38, %46, %69, %72, %lxb_encoding_encode_shift_jis_index.exit, %106, %3
  %.0 = phi i32 [ 0, %3 ], [ 0, %106 ], [ 15, %lxb_encoding_encode_shift_jis_index.exit ], [ 15, %72 ], [ 1, %69 ], [ 15, %46 ], [ 15, %38 ], [ 15, %27 ], [ 15, %15 ]
  ret i32 %.0
}